target datalayout = "e-m:e-p270:32:32-p271:32:32-p272:64:64-i64:64-i128:128-f80:128-n8:16:32:64-S128"
target triple = "x86_64-pc-linux-gnu"

%"struct.std::atomic" = type { %"struct.std::__atomic_base" }
%"struct.std::__atomic_base" = type { ptr }
%"struct.pxrInternal_v0_24__pxrReserved__::TfEnvSetting" = type { ptr, i32, ptr, ptr }

@_ZN32pxrInternal_v0_24__pxrReserved__31USDIMAGING_ENABLE_BINDING_CACHEE = global %"struct.pxrInternal_v0_24__pxrReserved__::TfEnvSetting" { ptr @_ZN32pxrInternal_v0_24__pxrReserved__37USDIMAGING_ENABLE_BINDING_CACHE_valueE, i32 1, ptr @.str.6, ptr @.str.7 }, align 8

; Function Attrs: noreturn nounwind uwtable
define linkonce_odr hidden void @__clang_call_terminate(ptr noundef %0) #9 comdat {
  %2 = call ptr @__cxa_begin_catch(ptr %0) #7
  call void @_ZSt9terminatev() #19
  unreachable
}

; Function Attrs: mustprogress nounwind uwtable
define linkonce_odr noundef i32 @_ZStanSt12memory_orderSt23__memory_order_modifier(i32 noundef %0, i32 noundef %1) #2 comdat {
  %3 = alloca i32, align 4
  %4 = alloca i32, align 4
  store i32 %0, ptr %3, align 4
  store i32 %1, ptr %4, align 4
  %5 = load i32, ptr %3, align 4
  %6 = load i32, ptr %4, align 4
  %7 = and i32 %5, %6
  ret i32 %7
}

; Function Attrs: mustprogress nounwind uwtable
define linkonce_odr noundef ptr @_ZNKSt6atomicIPiE4loadESt12memory_order(ptr noundef nonnull align 8 dereferenceable(8) %0, i32 noundef %1) #2 comdat align 2 personality ptr @__gxx_personality_v0 {
  %3 = alloca ptr, align 8
  %4 = alloca i32, align 4
  %5 = alloca i32, align 4
  %6 = alloca ptr, align 8
  %7 = alloca ptr, align 8
  %8 = alloca i32, align 4
  store ptr %0, ptr %7, align 8
  store i32 %1, ptr %8, align 4
  %9 = load ptr, ptr %7, align 8
  %10 = getelementptr inbounds nuw %"struct.std::atomic", ptr %9, i32 0, i32 0
  %11 = load i32, ptr %8, align 4
  store ptr %10, ptr %3, align 8
  store i32 %11, ptr %4, align 4
  %12 = load ptr, ptr %3, align 8
  %13 = load i32, ptr %4, align 4
  %14 = invoke noundef i32 @_ZStanSt12memory_orderSt23__memory_order_modifier(i32 noundef %13, i32 noundef 65535)
          to label %15 unwind label %23

15:                                               ; preds = %2
  store i32 %14, ptr %5, align 4
  %16 = load i32, ptr %4, align 4
  switch i32 %16, label %17 [
    i32 1, label %19
    i32 2, label %19
    i32 5, label %21
  ]

17:                                               ; preds = %15
  %18 = load atomic i64, ptr %12 monotonic, align 8
  store i64 %18, ptr %6, align 8
  br label %26

19:                                               ; preds = %15, %15
  %20 = load atomic i64, ptr %12 acquire, align 8
  store i64 %20, ptr %6, align 8
  br label %26

21:                                               ; preds = %15
  %22 = load atomic i64, ptr %12 seq_cst, align 8
  store i64 %22, ptr %6, align 8
  br label %26

23:                                               ; preds = %2
  %24 = landingpad { ptr, i32 }
          catch ptr null
  %25 = extractvalue { ptr, i32 } %24, 0
  call void @__clang_call_terminate(ptr %25) #19
  unreachable

26:                                               ; preds = %21, %19, %17
  %27 = load ptr, ptr %6, align 8
  ret ptr %27
}

; Function Attrs: mustprogress uwtable
define linkonce_odr noundef nonnull align 4 dereferenceable(4) ptr @_ZN32pxrInternal_v0_24__pxrReserved__15TfGetEnvSettingIiEERKT_RNS_12TfEnvSettingIS1_EE(ptr noundef nonnull align 8 dereferenceable(32) %0) #0 comdat {
  %2 = alloca ptr, align 8
  %3 = alloca ptr, align 8
  store ptr %0, ptr %2, align 8
  %4 = load ptr, ptr %2, align 8
  %5 = getelementptr inbounds nuw %"struct.pxrInternal_v0_24__pxrReserved__::TfEnvSetting", ptr %4, i32 0, i32 0
  %6 = load ptr, ptr %5, align 8
  %7 = call noundef ptr @_ZNKSt6atomicIPiE4loadESt12memory_order(ptr noundef nonnull align 8 dereferenceable(8) %6, i32 noundef 5) #7
  store ptr %7, ptr %3, align 8
  %8 = load ptr, ptr %3, align 8
  %9 = icmp ne ptr %8, null
  %10 = xor i1 %9, true
  br i1 %10, label %11, label %17

11:                                               ; preds = %1
  %12 = load ptr, ptr %2, align 8
  call void @_ZN32pxrInternal_v0_24__pxrReserved__23Tf_InitializeEnvSettingIiEEvPNS_12TfEnvSettingIT_EE(ptr noundef %12)
  %13 = load ptr, ptr %2, align 8
  %14 = getelementptr inbounds nuw %"struct.pxrInternal_v0_24__pxrReserved__::TfEnvSetting", ptr %13, i32 0, i32 0
  %15 = load ptr, ptr %14, align 8
  %16 = call noundef ptr @_ZNKSt6atomicIPiE4loadESt12memory_order(ptr noundef nonnull align 8 dereferenceable(8) %15, i32 noundef 5) #7
  store ptr %16, ptr %3, align 8
  br label %17

17:                                               ; preds = %11, %1
  %18 = load ptr, ptr %3, align 8
  ret ptr %18
}

; Function Attrs: mustprogress uwtable
define internal void @_ZN32pxrInternal_v0_24__pxrReserved__L53_Tf_RegistryFunctionUSDIMAGING_ENABLE_BINDING_CACHE53EPNS_21Tf_EnvSettingRegistryEPv(ptr noundef %0, ptr noundef %1) #0 {
  %3 = alloca ptr, align 8
  %4 = alloca ptr, align 8
  store ptr %0, ptr %3, align 8
  store ptr %1, ptr %4, align 8
  %5 = call noundef nonnull align 4 dereferenceable(4) ptr @_ZN32pxrInternal_v0_24__pxrReserved__15TfGetEnvSettingIiEERKT_RNS_12TfEnvSettingIS1_EE(ptr noundef nonnull align 8 dereferenceable(32) @_ZN32pxrInternal_v0_24__pxrReserved__31USDIMAGING_ENABLE_BINDING_CACHEE)
  ret void
}